target datalayout = "e-m:e-p270:32:32-p271:32:32-p272:64:64-i64:64-i128:128-f80:128-n8:16:32:64-S128"
target triple = "x86_64-pc-linux-gnu"

%struct.H5T_t = type { %struct.H5O_shared_t, ptr, %struct.H5O_loc_t, %struct.H5G_name_t, ptr }
%struct.H5O_shared_t = type { i32, ptr, i32, %union.anon }
%union.anon = type { %struct.H5O_mesg_loc_t }
%struct.H5O_mesg_loc_t = type { i32, i64 }
%struct.H5O_loc_t = type { ptr, i64, i8 }
%struct.H5G_name_t = type { ptr, ptr, i32 }

@H5_libterm_g = external global i8, align 1
@H5T_init_g = external global i8, align 1

; Function Attrs: nounwind uwtable
define ptr @H5T_get_actual_type(ptr noundef %0) #0 {
  %2 = alloca ptr, align 8
  %3 = alloca ptr, align 8
  store ptr %0, ptr %2, align 8, !tbaa !21
  call void @llvm.lifetime.start.p0(i64 8, ptr %3) #7
  store ptr null, ptr %3, align 8, !tbaa !21
  %4 = load i8, ptr @H5T_init_g, align 1, !tbaa !12, !range !14, !noundef !15
  %5 = trunc i8 %4 to i1
  br i1 %5, label %10, label %6

6:                                                ; preds = %1
  %7 = load i8, ptr @H5_libterm_g, align 1, !tbaa !12, !range !14, !noundef !15
  %8 = trunc i8 %7 to i1
  %9 = xor i1 %8, true
  br label %10

10:                                               ; preds = %6, %1
  %11 = phi i1 [ true, %1 ], [ %9, %6 ]
  %12 = xor i1 %11, true
  %13 = xor i1 %12, true
  %14 = zext i1 %13 to i32
  %15 = sext i32 %14 to i64
  %16 = call i64 @llvm.expect.i64(i64 %15, i64 1)
  %17 = icmp ne i64 %16, 0
  br i1 %17, label %18, label %31

18:                                               ; preds = %10
  %19 = load ptr, ptr %2, align 8, !tbaa !21
  %20 = getelementptr inbounds nuw %struct.H5T_t, ptr %19, i32 0, i32 4
  %21 = load ptr, ptr %20, align 8, !tbaa !24
  %22 = icmp eq ptr null, %21
  br i1 %22, label %23, label %25

23:                                               ; preds = %18
  %24 = load ptr, ptr %2, align 8, !tbaa !21
  store ptr %24, ptr %3, align 8, !tbaa !21
  br label %30

25:                                               ; preds = %18
  %26 = load ptr, ptr %2, align 8, !tbaa !21
  %27 = getelementptr inbounds nuw %struct.H5T_t, ptr %26, i32 0, i32 4
  %28 = load ptr, ptr %27, align 8, !tbaa !24
  %29 = call ptr @H5VL_object_data(ptr noundef %28)
  store ptr %29, ptr %3, align 8, !tbaa !21
  br label %30

30:                                               ; preds = %25, %23
  br label %31

31:                                               ; preds = %30, %10
  %32 = load ptr, ptr %3, align 8, !tbaa !21
  call void @llvm.lifetime.end.p0(i64 8, ptr %3) #7
  ret ptr %32
}