; Function Attrs: nounwind uwtable
define ptr @H5T_get_actual_type(ptr noundef readonly captures(ret: address, provenance) %0) local_unnamed_addr #0 {
  %2 = load i8, ptr @H5T_init_g, align 1, !tbaa !3, !range !7, !noundef !8
  %3 = trunc nuw i8 %2 to i1
  %4 = load i8, ptr @H5_libterm_g, align 1, !range !7
  %5 = trunc nuw i8 %4 to i1
  %6 = xor i1 %5, true
  %7 = select i1 %3, i1 true, i1 %6
  br i1 %7, label %8, label %14, !prof !9

8:                                                ; preds = %1
  %9 = getelementptr inbounds nuw i8, ptr %0, i64 96
  %10 = load ptr, ptr %9, align 8, !tbaa !19
  %11 = icmp eq ptr %10, null
  br i1 %11, label %14, label %12

12:                                               ; preds = %8
  %13 = tail call ptr @H5VL_object_data(ptr noundef nonnull %10) #9
  br label %14

14:                                               ; preds = %8, %12, %1
  %.0 = phi ptr [ %13, %12 ], [ null, %1 ], [ %0, %8 ]
  ret ptr %.0
}